; Function Attrs: mustprogress nounwind uwtable
define hidden void @_ZN14ShenandoahHeap23set_full_gc_in_progressEb(ptr noundef nonnull align 8 dereferenceable(2657) %0, i1 noundef zeroext %1) local_unnamed_addr #1 align 2 {
  %3 = getelementptr inbounds i8, ptr %0, i64 1156
  br i1 %1, label %4, label %6

4:                                                ; preds = %2
  %5 = tail call i8 asm sideeffect "xchgb ($2),$0", "=q,0,r,~{memory},~{dirflag},~{fpsr},~{flags}"(i8 1, ptr nonnull %3) #26, !srcloc !16
  br label %_ZN20ShenandoahSharedFlag8set_condEb.exit

6:                                                ; preds = %2
  %7 = tail call i8 asm sideeffect "xchgb ($2),$0", "=q,0,r,~{memory},~{dirflag},~{fpsr},~{flags}"(i8 0, ptr nonnull %3) #26, !srcloc !16
  br label %_ZN20ShenandoahSharedFlag8set_condEb.exit

_ZN20ShenandoahSharedFlag8set_condEb.exit:        ; preds = %4, %6
  ret void
}